; Function Attrs: mustprogress uwtable
define void @_ZN3zmq12udp_engine_t14restart_outputEv(ptr noundef nonnull align 8 dereferenceable(17880) %0) unnamed_addr #0 align 2 {
  %2 = alloca %"class.zmq::msg_t", align 8
  %3 = getelementptr inbounds nuw i8, ptr %0, i64 17876
  %4 = load i8, ptr %3, align 4, !tbaa !65, !range !97, !noundef !98
  %5 = trunc nuw i8 %4 to i1
  br i1 %5, label %21, label %6

6:                                                ; preds = %1
  call void @llvm.lifetime.start.p0(i64 64, ptr nonnull %2) #23
  %7 = getelementptr inbounds nuw i8, ptr %0, i64 104
  %8 = load ptr, ptr %7, align 8, !tbaa !109
  %9 = load ptr, ptr %8, align 8, !tbaa !3
  %10 = getelementptr inbounds nuw i8, ptr %9, i64 240
  %11 = load ptr, ptr %10, align 8
  %12 = call noundef i32 %11(ptr noundef nonnull align 8 dereferenceable(1624) %8, ptr noundef nonnull %2)
  %13 = icmp eq i32 %12, 0
  br i1 %13, label %.lr.ph, label %._crit_edge

.lr.ph:                                           ; preds = %6, %.lr.ph
  %14 = call noundef i32 @_ZN3zmq5msg_t5closeEv(ptr noundef nonnull align 8 dereferenceable(64) %2)
  %15 = load ptr, ptr %7, align 8, !tbaa !109
  %16 = load ptr, ptr %15, align 8, !tbaa !3
  %17 = getelementptr inbounds nuw i8, ptr %16, i64 240
  %18 = load ptr, ptr %17, align 8
  %19 = call noundef i32 %18(ptr noundef nonnull align 8 dereferenceable(1624) %15, ptr noundef nonnull %2)
  %20 = icmp eq i32 %19, 0
  br i1 %20, label %.lr.ph, label %._crit_edge, !llvm.loop !116

._crit_edge:                                      ; preds = %.lr.ph, %6
  call void @llvm.lifetime.end.p0(i64 64, ptr nonnull %2) #23
  br label %24

21:                                               ; preds = %1
  %22 = getelementptr inbounds nuw i8, ptr %0, i64 112
  %23 = load ptr, ptr %22, align 8, !tbaa !110
  tail call void @_ZN3zmq11io_object_t11set_polloutEPv(ptr noundef nonnull align 8 dereferenceable(16) %0, ptr noundef %23)
  tail call void @_ZN3zmq12udp_engine_t9out_eventEv(ptr noundef nonnull align 8 dereferenceable(17880) %0)
  br label %24

24:                                               ; preds = %21, %._crit_edge
  ret void
}